target datalayout = "e-m:e-p270:32:32-p271:32:32-p272:64:64-i64:64-i128:128-f80:128-n8:16:32:64-S128"
target triple = "x86_64-pc-linux-gnu"

%struct.strvec = type { ptr, i64, i64 }
%struct.strbuf = type { i64, i64, ptr }
%struct.commit = type { %struct.object, i64, ptr, ptr, i32 }
%struct.object = type { i32, %struct.object_id }
%struct.object_id = type { [32 x i8], i32 }
%struct.oidset = type { %struct.kh_oid_set }
%struct.kh_oid_set = type { i32, i32, i32, i32, ptr, ptr, ptr }
%struct.rev_info = type { ptr, %struct.object_array, ptr, %struct.object_array, %struct.rev_cmdline_info, %struct.list_objects_filter_options, %struct.ref_exclusions, ptr, ptr, ptr, %struct.pathspec, i32, i32, i32, i32, i64, i32, i32, %struct.date_mode, i32, i32, i32, i32, ptr, i32, i32, ptr, ptr, i32, ptr, ptr, %struct.ident_split, ptr, i32, ptr, ptr, ptr, i32, i32, i32, ptr, %struct.grep_opt, ptr, i32, i32, i64, i64, i64, i32, i32, ptr, ptr, ptr, %struct.diff_options, %struct.diff_options, ptr, %struct.decoration, %struct.decoration, %struct.decoration, %struct.display_notes_opt, ptr, ptr, ptr, ptr, ptr, i32, ptr, i32, i32, i32, %struct.decoration, ptr, ptr, ptr, ptr, ptr, ptr, ptr, i32, ptr, i32, ptr, %struct.oidset }
%struct.object_array = type { i32, i32, ptr }
%struct.rev_cmdline_info = type { i32, i32, ptr }
%struct.list_objects_filter_options = type { %struct.strbuf, i32, i8, ptr, i64, i64, i32, i64, i64, ptr }
%struct.ref_exclusions = type { %struct.string_list, %struct.strvec, i8 }
%struct.string_list = type { ptr, i64, i64, i8, ptr }
%struct.pathspec = type { i32, i8, i32, i32, ptr }
%struct.date_mode = type { i32, i32, ptr }
%struct.ident_split = type { ptr, ptr, ptr, ptr, ptr, ptr, ptr, ptr }
%struct.grep_opt = type { ptr, ptr, ptr, ptr, ptr, ptr, i32, i32, i32, i32, i32, i32, i32, i32, i32, i32, i32, i32, i32, i32, i32, i32, i32, i32, i32, i32, i32, i32, i32, i32, i32, i32, [9 x [75 x i8]], i32, i32, i32, i32, i32, i32, i32, ptr, ptr, ptr }
%struct.diff_options = type { ptr, ptr, i32, i32, ptr, i32, ptr, i64, i64, ptr, ptr, ptr, ptr, %struct.diff_flags, i32, i32, i32, i32, i32, i32, i32, i32, i32, i32, i32, i32, i32, i32, i32, i32, i32, i32, i32, i32, i32, i32, ptr, i32, ptr, i32, i32, ptr, i64, i64, i32, i32, i32, i32, ptr, i32, i32, ptr, i32, i32, ptr, ptr, i32, [3 x i8], %struct.pathspec, ptr, ptr, ptr, ptr, ptr, ptr, ptr, ptr, i32, ptr, i32, i32, ptr, ptr, i32 }
%struct.diff_flags = type { i32, i32, i32, i32, i32, i32, i32, i32, i32, i32, i32, i32, i32, i32, i32, i32, i32, i32, i32, i32, i32, i32, i32, i32, i32, i32, i32, i32, i32, i32, i32, i32, i32, i32, i32 }
%struct.display_notes_opt = type { i32, %struct.string_list }
%struct.decoration = type { ptr, i32, i32, ptr }
%struct.saved_parents = type { i32, i32, i32, ptr }

@.str.37 = private unnamed_addr constant [27 x i8] c"size_t overflow: %lu * %lu\00", align 1

; Function Attrs: inlinehint nounwind uwtable
define internal i64 @st_mult(i64 noundef %0, i64 noundef %1) #4 {
  %3 = alloca i64, align 8
  %4 = alloca i64, align 8
  store i64 %0, ptr %3, align 8, !tbaa !34
  store i64 %1, ptr %4, align 8, !tbaa !34
  %5 = load i64, ptr %3, align 8, !tbaa !34
  %6 = icmp ne i64 %5, 0
  br i1 %6, label %7, label %15

7:                                                ; preds = %2
  %8 = load i64, ptr %4, align 8, !tbaa !34
  %9 = load i64, ptr %3, align 8, !tbaa !34
  %10 = udiv i64 -1, %9
  %11 = icmp ugt i64 %8, %10
  br i1 %11, label %12, label %15

12:                                               ; preds = %7
  %13 = load i64, ptr %3, align 8, !tbaa !34
  %14 = load i64, ptr %4, align 8, !tbaa !34
  call void (ptr, ...) @die(ptr noundef @.str.37, i64 noundef %13, i64 noundef %14) #13
  unreachable

15:                                               ; preds = %7, %2
  %16 = load i64, ptr %3, align 8, !tbaa !34
  %17 = load i64, ptr %4, align 8, !tbaa !34
  %18 = mul i64 %16, %17
  ret i64 %18
}

; Function Attrs: nounwind uwtable
define internal ptr @saved_parents_at_peek(ptr noundef %0, ptr noundef %1, i32 noundef %2) #0 {
  %4 = alloca ptr, align 8
  %5 = alloca ptr, align 8
  %6 = alloca ptr, align 8
  %7 = alloca i32, align 4
  %8 = alloca i32, align 4
  %9 = alloca i32, align 4
  %10 = alloca i32, align 4
  %11 = alloca i32, align 4
  store ptr %0, ptr %5, align 8, !tbaa !389
  store ptr %1, ptr %6, align 8, !tbaa !24
  store i32 %2, ptr %7, align 4, !tbaa !9
  call void @llvm.lifetime.start.p0(i64 4, ptr %8) #12
  call void @llvm.lifetime.start.p0(i64 4, ptr %9) #12
  %12 = load ptr, ptr %6, align 8, !tbaa !24
  %13 = getelementptr inbounds nuw %struct.commit, ptr %12, i32 0, i32 4
  %14 = load i32, ptr %13, align 8, !tbaa !26
  %15 = load ptr, ptr %5, align 8, !tbaa !389
  %16 = getelementptr inbounds nuw %struct.saved_parents, ptr %15, i32 0, i32 0
  %17 = load i32, ptr %16, align 8, !tbaa !517
  %18 = udiv i32 %14, %17
  store i32 %18, ptr %8, align 4, !tbaa !9
  %19 = load ptr, ptr %6, align 8, !tbaa !24
  %20 = getelementptr inbounds nuw %struct.commit, ptr %19, i32 0, i32 4
  %21 = load i32, ptr %20, align 8, !tbaa !26
  %22 = load ptr, ptr %5, align 8, !tbaa !389
  %23 = getelementptr inbounds nuw %struct.saved_parents, ptr %22, i32 0, i32 0
  %24 = load i32, ptr %23, align 8, !tbaa !517
  %25 = urem i32 %21, %24
  store i32 %25, ptr %9, align 4, !tbaa !9
  %26 = load ptr, ptr %5, align 8, !tbaa !389
  %27 = getelementptr inbounds nuw %struct.saved_parents, ptr %26, i32 0, i32 2
  %28 = load i32, ptr %27, align 8, !tbaa !520
  %29 = load i32, ptr %8, align 4, !tbaa !9
  %30 = icmp ule i32 %28, %29
  br i1 %30, label %31, label %71

31:                                               ; preds = %3
  call void @llvm.lifetime.start.p0(i64 4, ptr %10) #12
  %32 = load i32, ptr %7, align 4, !tbaa !9
  %33 = icmp ne i32 %32, 0
  br i1 %33, label %35, label %34

34:                                               ; preds = %31
  store ptr null, ptr %4, align 8
  store i32 1, ptr %11, align 4
  br label %68

35:                                               ; preds = %31
  %36 = load ptr, ptr %5, align 8, !tbaa !389
  %37 = getelementptr inbounds nuw %struct.saved_parents, ptr %36, i32 0, i32 3
  %38 = load ptr, ptr %37, align 8, !tbaa !521
  %39 = load i32, ptr %8, align 4, !tbaa !9
  %40 = add i32 %39, 1
  %41 = zext i32 %40 to i64
  %42 = call i64 @st_mult(i64 noundef 8, i64 noundef %41)
  %43 = call ptr @xrealloc(ptr noundef %38, i64 noundef %42)
  %44 = load ptr, ptr %5, align 8, !tbaa !389
  %45 = getelementptr inbounds nuw %struct.saved_parents, ptr %44, i32 0, i32 3
  store ptr %43, ptr %45, align 8, !tbaa !521
  %46 = load ptr, ptr %5, align 8, !tbaa !389
  %47 = getelementptr inbounds nuw %struct.saved_parents, ptr %46, i32 0, i32 2
  %48 = load i32, ptr %47, align 8, !tbaa !520
  store i32 %48, ptr %10, align 4, !tbaa !9
  br label %49

49:                                               ; preds = %60, %35
  %50 = load i32, ptr %10, align 4, !tbaa !9
  %51 = load i32, ptr %8, align 4, !tbaa !9
  %52 = icmp ule i32 %50, %51
  br i1 %52, label %53, label %63

53:                                               ; preds = %49
  %54 = load ptr, ptr %5, align 8, !tbaa !389
  %55 = getelementptr inbounds nuw %struct.saved_parents, ptr %54, i32 0, i32 3
  %56 = load ptr, ptr %55, align 8, !tbaa !521
  %57 = load i32, ptr %10, align 4, !tbaa !9
  %58 = zext i32 %57 to i64
  %59 = getelementptr inbounds nuw ptr, ptr %56, i64 %58
  store ptr null, ptr %59, align 8, !tbaa !318
  br label %60

60:                                               ; preds = %53
  %61 = load i32, ptr %10, align 4, !tbaa !9
  %62 = add i32 %61, 1
  store i32 %62, ptr %10, align 4, !tbaa !9
  br label %49, !llvm.loop !522

63:                                               ; preds = %49
  %64 = load i32, ptr %8, align 4, !tbaa !9
  %65 = add i32 %64, 1
  %66 = load ptr, ptr %5, align 8, !tbaa !389
  %67 = getelementptr inbounds nuw %struct.saved_parents, ptr %66, i32 0, i32 2
  store i32 %65, ptr %67, align 8, !tbaa !520
  store i32 0, ptr %11, align 4
  br label %68

68:                                               ; preds = %63, %34
  call void @llvm.lifetime.end.p0(i64 4, ptr %10) #12
  %69 = load i32, ptr %11, align 4
  switch i32 %69, label %116 [
    i32 0, label %70
  ]

70:                                               ; preds = %68
  br label %71

71:                                               ; preds = %70, %3
  %72 = load ptr, ptr %5, align 8, !tbaa !389
  %73 = getelementptr inbounds nuw %struct.saved_parents, ptr %72, i32 0, i32 3
  %74 = load ptr, ptr %73, align 8, !tbaa !521
  %75 = load i32, ptr %8, align 4, !tbaa !9
  %76 = zext i32 %75 to i64
  %77 = getelementptr inbounds nuw ptr, ptr %74, i64 %76
  %78 = load ptr, ptr %77, align 8, !tbaa !318
  %79 = icmp ne ptr %78, null
  br i1 %79, label %101, label %80

80:                                               ; preds = %71
  %81 = load i32, ptr %7, align 4, !tbaa !9
  %82 = icmp ne i32 %81, 0
  br i1 %82, label %84, label %83

83:                                               ; preds = %80
  store ptr null, ptr %4, align 8
  store i32 1, ptr %11, align 4
  br label %116

84:                                               ; preds = %80
  %85 = load ptr, ptr %5, align 8, !tbaa !389
  %86 = getelementptr inbounds nuw %struct.saved_parents, ptr %85, i32 0, i32 0
  %87 = load i32, ptr %86, align 8, !tbaa !517
  %88 = zext i32 %87 to i64
  %89 = load ptr, ptr %5, align 8, !tbaa !389
  %90 = getelementptr inbounds nuw %struct.saved_parents, ptr %89, i32 0, i32 1
  %91 = load i32, ptr %90, align 4, !tbaa !523
  %92 = zext i32 %91 to i64
  %93 = mul i64 8, %92
  %94 = call ptr @xcalloc(i64 noundef %88, i64 noundef %93)
  %95 = load ptr, ptr %5, align 8, !tbaa !389
  %96 = getelementptr inbounds nuw %struct.saved_parents, ptr %95, i32 0, i32 3
  %97 = load ptr, ptr %96, align 8, !tbaa !521
  %98 = load i32, ptr %8, align 4, !tbaa !9
  %99 = zext i32 %98 to i64
  %100 = getelementptr inbounds nuw ptr, ptr %97, i64 %99
  store ptr %94, ptr %100, align 8, !tbaa !318
  br label %101

101:                                              ; preds = %84, %71
  %102 = load ptr, ptr %5, align 8, !tbaa !389
  %103 = getelementptr inbounds nuw %struct.saved_parents, ptr %102, i32 0, i32 3
  %104 = load ptr, ptr %103, align 8, !tbaa !521
  %105 = load i32, ptr %8, align 4, !tbaa !9
  %106 = zext i32 %105 to i64
  %107 = getelementptr inbounds nuw ptr, ptr %104, i64 %106
  %108 = load ptr, ptr %107, align 8, !tbaa !318
  %109 = load i32, ptr %9, align 4, !tbaa !9
  %110 = load ptr, ptr %5, align 8, !tbaa !389
  %111 = getelementptr inbounds nuw %struct.saved_parents, ptr %110, i32 0, i32 1
  %112 = load i32, ptr %111, align 4, !tbaa !523
  %113 = mul i32 %109, %112
  %114 = zext i32 %113 to i64
  %115 = getelementptr inbounds nuw ptr, ptr %108, i64 %114
  store ptr %115, ptr %4, align 8
  store i32 1, ptr %11, align 4
  br label %116

116:                                              ; preds = %101, %83, %68
  call void @llvm.lifetime.end.p0(i64 4, ptr %9) #12
  call void @llvm.lifetime.end.p0(i64 4, ptr %8) #12
  %117 = load ptr, ptr %4, align 8
  ret ptr %117
}

; Function Attrs: nounwind uwtable
define internal ptr @saved_parents_at(ptr noundef %0, ptr noundef %1) #0 {
  %3 = alloca ptr, align 8
  %4 = alloca ptr, align 8
  store ptr %0, ptr %3, align 8, !tbaa !389
  store ptr %1, ptr %4, align 8, !tbaa !24
  %5 = load ptr, ptr %3, align 8, !tbaa !389
  %6 = load ptr, ptr %4, align 8, !tbaa !24
  %7 = call ptr @saved_parents_at_peek(ptr noundef %5, ptr noundef %6, i32 noundef 1)
  ret ptr %7
}

; Function Attrs: nounwind uwtable
define dso_local ptr @get_saved_parents(ptr noundef %0, ptr noundef %1) #0 {
  %3 = alloca ptr, align 8
  %4 = alloca ptr, align 8
  %5 = alloca ptr, align 8
  %6 = alloca ptr, align 8
  %7 = alloca i32, align 4
  store ptr %0, ptr %4, align 8, !tbaa !88
  store ptr %1, ptr %5, align 8, !tbaa !24
  call void @llvm.lifetime.start.p0(i64 8, ptr %6) #12
  %8 = load ptr, ptr %4, align 8, !tbaa !88
  %9 = getelementptr inbounds nuw %struct.rev_info, ptr %8, i32 0, i32 71
  %10 = load ptr, ptr %9, align 8, !tbaa !388
  %11 = icmp ne ptr %10, null
  br i1 %11, label %16, label %12

12:                                               ; preds = %2
  %13 = load ptr, ptr %5, align 8, !tbaa !24
  %14 = getelementptr inbounds nuw %struct.commit, ptr %13, i32 0, i32 2
  %15 = load ptr, ptr %14, align 8, !tbaa !90
  store ptr %15, ptr %3, align 8
  store i32 1, ptr %7, align 4
  br label %28

16:                                               ; preds = %2
  %17 = load ptr, ptr %4, align 8, !tbaa !88
  %18 = getelementptr inbounds nuw %struct.rev_info, ptr %17, i32 0, i32 71
  %19 = load ptr, ptr %18, align 8, !tbaa !388
  %20 = load ptr, ptr %5, align 8, !tbaa !24
  %21 = call ptr @saved_parents_at(ptr noundef %19, ptr noundef %20)
  %22 = load ptr, ptr %21, align 8, !tbaa !91
  store ptr %22, ptr %6, align 8, !tbaa !91
  %23 = load ptr, ptr %6, align 8, !tbaa !91
  %24 = icmp eq ptr %23, inttoptr (i64 -1 to ptr)
  br i1 %24, label %25, label %26

25:                                               ; preds = %16
  store ptr null, ptr %3, align 8
  store i32 1, ptr %7, align 4
  br label %28

26:                                               ; preds = %16
  %27 = load ptr, ptr %6, align 8, !tbaa !91
  store ptr %27, ptr %3, align 8
  store i32 1, ptr %7, align 4
  br label %28

28:                                               ; preds = %26, %25, %12
  call void @llvm.lifetime.end.p0(i64 8, ptr %6) #12
  %29 = load ptr, ptr %3, align 8
  ret ptr %29
}