; Function Attrs: nounwind uwtable
define dso_local ptr @get_saved_parents(ptr noundef readonly captures(none) %0, ptr noundef readonly captures(none) %1) local_unnamed_addr #2 {
  %3 = getelementptr inbounds nuw i8, ptr %0, i64 2880
  %4 = load ptr, ptr %3, align 8, !tbaa !384
  %.not = icmp eq ptr %4, null
  br i1 %.not, label %5, label %8

5:                                                ; preds = %2
  %6 = getelementptr inbounds nuw i8, ptr %1, i64 48
  %7 = load ptr, ptr %6, align 8, !tbaa !363
  br label %49

8:                                                ; preds = %2
  %9 = getelementptr i8, ptr %1, i64 64
  %.val = load i32, ptr %9, align 8, !tbaa !20
  %10 = load i32, ptr %4, align 8, !tbaa !385
  %11 = udiv i32 %.val, %10
  %12 = urem i32 %.val, %10
  %13 = getelementptr inbounds nuw i8, ptr %4, i64 8
  %14 = load i32, ptr %13, align 8, !tbaa !388
  %.not.i.i = icmp ugt i32 %14, %11
  br i1 %.not.i.i, label %._crit_edge4.i.i, label %st_mult.exit.i.i

._crit_edge4.i.i:                                 ; preds = %8
  %.phi.trans.insert.i.i = getelementptr inbounds nuw i8, ptr %4, i64 16
  %.pre.i.i = load ptr, ptr %.phi.trans.insert.i.i, align 8, !tbaa !389
  br label %25

st_mult.exit.i.i:                                 ; preds = %8
  %15 = add i32 %11, 1
  %16 = zext i32 %15 to i64
  %17 = getelementptr inbounds nuw i8, ptr %4, i64 16
  %18 = load ptr, ptr %17, align 8, !tbaa !389
  %19 = shl nuw nsw i64 %16, 3
  %20 = tail call ptr @xrealloc(ptr noundef %18, i64 noundef %19) #26
  store ptr %20, ptr %17, align 8, !tbaa !389
  %21 = load i32, ptr %13, align 8, !tbaa !388
  %.not332.i.i = icmp ugt i32 %21, %11
  br i1 %.not332.i.i, label %._crit_edge.i.i, label %.lr.ph.i.i

.lr.ph.i.i:                                       ; preds = %st_mult.exit.i.i, %.lr.ph.i.i
  %.0303.i.i = phi i32 [ %24, %.lr.ph.i.i ], [ %21, %st_mult.exit.i.i ]
  %22 = zext i32 %.0303.i.i to i64
  %23 = getelementptr inbounds nuw ptr, ptr %20, i64 %22
  store ptr null, ptr %23, align 8, !tbaa !390
  %24 = add i32 %.0303.i.i, 1
  %.not33.i.i = icmp ugt i32 %24, %11
  br i1 %.not33.i.i, label %._crit_edge.i.i, label %.lr.ph.i.i, !llvm.loop !392

._crit_edge.i.i:                                  ; preds = %.lr.ph.i.i, %st_mult.exit.i.i
  store i32 %15, ptr %13, align 8, !tbaa !388
  br label %25

25:                                               ; preds = %._crit_edge.i.i, %._crit_edge4.i.i
  %26 = phi ptr [ %.pre.i.i, %._crit_edge4.i.i ], [ %20, %._crit_edge.i.i ]
  %27 = zext i32 %11 to i64
  %28 = getelementptr inbounds nuw ptr, ptr %26, i64 %27
  %29 = load ptr, ptr %28, align 8, !tbaa !390
  %.not34.i.i = icmp eq ptr %29, null
  br i1 %.not34.i.i, label %30, label %saved_parents_at.exit

30:                                               ; preds = %25
  %31 = getelementptr inbounds nuw i8, ptr %4, i64 16
  %32 = load i32, ptr %4, align 8, !tbaa !385
  %33 = zext i32 %32 to i64
  %34 = getelementptr inbounds nuw i8, ptr %4, i64 4
  %35 = load i32, ptr %34, align 4, !tbaa !393
  %36 = zext i32 %35 to i64
  %37 = shl nuw nsw i64 %36, 3
  %38 = tail call ptr @xcalloc(i64 noundef %33, i64 noundef %37) #26
  %39 = load ptr, ptr %31, align 8, !tbaa !389
  %40 = getelementptr inbounds nuw ptr, ptr %39, i64 %27
  store ptr %38, ptr %40, align 8, !tbaa !390
  br label %saved_parents_at.exit

saved_parents_at.exit:                            ; preds = %25, %30
  %41 = phi ptr [ %29, %25 ], [ %38, %30 ]
  %42 = getelementptr inbounds nuw i8, ptr %4, i64 4
  %43 = load i32, ptr %42, align 4, !tbaa !393
  %44 = mul i32 %43, %12
  %45 = zext i32 %44 to i64
  %46 = getelementptr inbounds nuw ptr, ptr %41, i64 %45
  %47 = load ptr, ptr %46, align 8, !tbaa !58
  %48 = icmp eq ptr %47, inttoptr (i64 -1 to ptr)
  %. = select i1 %48, ptr null, ptr %47
  br label %49

49:                                               ; preds = %saved_parents_at.exit, %5
  %.0 = phi ptr [ %7, %5 ], [ %., %saved_parents_at.exit ]
  ret ptr %.0
}